; Function Attrs: mustprogress uwtable
define hidden noundef zeroext i1 @_ZN1q4mbqi20check_forall_defaultEP10quantifierRNS0_6q_bodyER5model(ptr noundef nonnull align 8 dereferenceable(280) %this, ptr noundef %q, ptr noundef nonnull align 8 dereferenceable(80) %qb, ptr noundef nonnull align 8 dereferenceable(160) %mdl) local_unnamed_addr #3 align 2 personality ptr @__gxx_personality_v0 {
entry:
  %eqs = alloca %class.ref_vector, align 8
  %proj = alloca %class.obj_ref, align 8
  %m = getelementptr inbounds i8, ptr %this, i64 16
  %0 = load ptr, ptr %m, align 8
  %1 = ptrtoint ptr %0 to i64
  store i64 %1, ptr %eqs, align 8
  %m_nodes.i.i = getelementptr inbounds i8, ptr %eqs, i64 8
  store ptr null, ptr %m_nodes.i.i, align 8
  invoke void @_ZN1q4mbqi17add_domain_boundsER5modelRNS0_6q_bodyE(ptr noundef nonnull align 8 dereferenceable(280) %this, ptr noundef nonnull align 8 dereferenceable(160) %mdl, ptr noundef nonnull align 8 dereferenceable(80) %qb)
          to label %invoke.cont unwind label %lpad

invoke.cont:                                      ; preds = %entry
  invoke void @_ZN1q4mbqi14solver_projectER5modelRNS0_6q_bodyER10ref_vectorI4expr11ast_managerEb(ptr nonnull sret(%class.obj_ref) align 8 %proj, ptr noundef nonnull align 8 dereferenceable(280) %this, ptr noundef nonnull align 8 dereferenceable(160) %mdl, ptr noundef nonnull align 8 dereferenceable(80) %qb, ptr noundef nonnull align 8 dereferenceable(16) %eqs, i1 noundef zeroext false)
          to label %invoke.cont2 unwind label %lpad

invoke.cont2:                                     ; preds = %invoke.cont
  %2 = load ptr, ptr %proj, align 8
  %cmp.i = icmp ne ptr %2, null
  br i1 %cmp.i, label %if.end, label %_ZN7obj_refI4expr11ast_managerED2Ev.exit

lpad:                                             ; preds = %invoke.cont, %entry
  %3 = landingpad { ptr, i32 }
          cleanup
  br label %ehcleanup

lpad3:                                            ; preds = %if.end
  %4 = landingpad { ptr, i32 }
          cleanup
  call void @_ZN7obj_refI4expr11ast_managerED2Ev(ptr noundef nonnull align 8 dereferenceable(16) %proj) #18
  br label %ehcleanup

if.end:                                           ; preds = %invoke.cont2
  invoke void @_ZN1q4mbqi17add_instantiationEP10quantifierR7obj_refI4expr11ast_managerE(ptr noundef nonnull align 8 dereferenceable(280) %this, ptr noundef %q, ptr noundef nonnull align 8 dereferenceable(16) %proj)
          to label %cleanup unwind label %lpad3

cleanup:                                          ; preds = %if.end
  %.pr = load ptr, ptr %proj, align 8
  %tobool.not.i.i = icmp eq ptr %.pr, null
  br i1 %tobool.not.i.i, label %_ZN7obj_refI4expr11ast_managerED2Ev.exit, label %if.then.i.i.i

if.then.i.i.i:                                    ; preds = %cleanup
  %m_manager.i.i = getelementptr inbounds i8, ptr %proj, i64 8
  %5 = load ptr, ptr %m_manager.i.i, align 8
  %m_ref_count.i.i.i.i = getelementptr inbounds i8, ptr %.pr, i64 8
  %6 = load i32, ptr %m_ref_count.i.i.i.i, align 4
  %dec.i.i.i.i = add i32 %6, -1
  store i32 %dec.i.i.i.i, ptr %m_ref_count.i.i.i.i, align 4
  %cmp.i.i.i = icmp eq i32 %dec.i.i.i.i, 0
  br i1 %cmp.i.i.i, label %if.then2.i.i.i, label %_ZN7obj_refI4expr11ast_managerED2Ev.exit

if.then2.i.i.i:                                   ; preds = %if.then.i.i.i
  invoke void @_ZN11ast_manager11delete_nodeEP3ast(ptr noundef nonnull align 8 dereferenceable(976) %5, ptr noundef nonnull %.pr)
          to label %_ZN7obj_refI4expr11ast_managerED2Ev.exit unwind label %terminate.lpad.i

terminate.lpad.i:                                 ; preds = %if.then2.i.i.i
  %7 = landingpad { ptr, i32 }
          catch ptr null
  %8 = extractvalue { ptr, i32 } %7, 0
  call void @__clang_call_terminate(ptr %8) #19
  unreachable

_ZN7obj_refI4expr11ast_managerED2Ev.exit:         ; preds = %invoke.cont2, %cleanup, %if.then.i.i.i, %if.then2.i.i.i
  %9 = load ptr, ptr %m_nodes.i.i, align 8
  %cmp.i.i.i5 = icmp eq ptr %9, null
  br i1 %cmp.i.i.i5, label %_ZN10ref_vectorI4expr11ast_managerED2Ev.exit, label %_ZNK6vectorIP4exprLb0EjE4sizeEv.exit.i.i

_ZNK6vectorIP4exprLb0EjE4sizeEv.exit.i.i:         ; preds = %_ZN7obj_refI4expr11ast_managerED2Ev.exit
  %arrayidx.i.i.i = getelementptr inbounds i8, ptr %9, i64 -4
  %10 = load i32, ptr %arrayidx.i.i.i, align 4
  %11 = zext i32 %10 to i64
  %add.ptr.i.i = getelementptr inbounds ptr, ptr %9, i64 %11
  %cmp3.i.not.i.i = icmp eq i32 %10, 0
  br i1 %cmp3.i.not.i.i, label %if.then.i.i.i.i.i, label %for.body.i.i.i

for.body.i.i.i:                                   ; preds = %_ZNK6vectorIP4exprLb0EjE4sizeEv.exit.i.i, %_ZN15ref_vector_coreI4expr19ref_manager_wrapperIS0_11ast_managerEE7dec_refEPS0_.exit.i.i.i
  %it.04.i.i.i = phi ptr [ %incdec.ptr.i.i.i, %_ZN15ref_vector_coreI4expr19ref_manager_wrapperIS0_11ast_managerEE7dec_refEPS0_.exit.i.i.i ], [ %9, %_ZNK6vectorIP4exprLb0EjE4sizeEv.exit.i.i ]
  %12 = load ptr, ptr %it.04.i.i.i, align 8
  %13 = load ptr, ptr %eqs, align 8
  %tobool.not.i.i.i.i.i.i = icmp eq ptr %12, null
  br i1 %tobool.not.i.i.i.i.i.i, label %_ZN15ref_vector_coreI4expr19ref_manager_wrapperIS0_11ast_managerEE7dec_refEPS0_.exit.i.i.i, label %if.then.i.i.i.i.i.i

if.then.i.i.i.i.i.i:                              ; preds = %for.body.i.i.i
  %m_ref_count.i.i.i.i.i.i.i = getelementptr inbounds i8, ptr %12, i64 8
  %14 = load i32, ptr %m_ref_count.i.i.i.i.i.i.i, align 4
  %dec.i.i.i.i.i.i.i = add i32 %14, -1
  store i32 %dec.i.i.i.i.i.i.i, ptr %m_ref_count.i.i.i.i.i.i.i, align 4
  %cmp.i.i.i.i.i.i = icmp eq i32 %dec.i.i.i.i.i.i.i, 0
  br i1 %cmp.i.i.i.i.i.i, label %if.then2.i.i.i.i.i.i, label %_ZN15ref_vector_coreI4expr19ref_manager_wrapperIS0_11ast_managerEE7dec_refEPS0_.exit.i.i.i

if.then2.i.i.i.i.i.i:                             ; preds = %if.then.i.i.i.i.i.i
  invoke void @_ZN11ast_manager11delete_nodeEP3ast(ptr noundef nonnull align 8 dereferenceable(976) %13, ptr noundef nonnull %12)
          to label %_ZN15ref_vector_coreI4expr19ref_manager_wrapperIS0_11ast_managerEE7dec_refEPS0_.exit.i.i.i unwind label %terminate.lpad.i.i

_ZN15ref_vector_coreI4expr19ref_manager_wrapperIS0_11ast_managerEE7dec_refEPS0_.exit.i.i.i: ; preds = %if.then2.i.i.i.i.i.i, %if.then.i.i.i.i.i.i, %for.body.i.i.i
  %incdec.ptr.i.i.i = getelementptr inbounds i8, ptr %it.04.i.i.i, i64 8
  %cmp.i1.i.i = icmp ult ptr %incdec.ptr.i.i.i, %add.ptr.i.i
  br i1 %cmp.i1.i.i, label %for.body.i.i.i, label %invoke.cont7.i.i, !llvm.loop !19

invoke.cont7.i.i:                                 ; preds = %_ZN15ref_vector_coreI4expr19ref_manager_wrapperIS0_11ast_managerEE7dec_refEPS0_.exit.i.i.i
  %.pre.i.i = load ptr, ptr %m_nodes.i.i, align 8
  %tobool.not.i.i.i.i.i = icmp eq ptr %.pre.i.i, null
  br i1 %tobool.not.i.i.i.i.i, label %_ZN10ref_vectorI4expr11ast_managerED2Ev.exit, label %if.then.i.i.i.i.i

if.then.i.i.i.i.i:                                ; preds = %invoke.cont7.i.i, %_ZNK6vectorIP4exprLb0EjE4sizeEv.exit.i.i
  %15 = phi ptr [ %.pre.i.i, %invoke.cont7.i.i ], [ %9, %_ZNK6vectorIP4exprLb0EjE4sizeEv.exit.i.i ]
  %add.ptr.i.i.i.i.i.i = getelementptr inbounds i8, ptr %15, i64 -8
  invoke void @_ZN6memory10deallocateEPv(ptr noundef nonnull %add.ptr.i.i.i.i.i.i)
          to label %_ZN10ref_vectorI4expr11ast_managerED2Ev.exit unwind label %terminate.lpad.i.i.i.i

terminate.lpad.i.i.i.i:                           ; preds = %if.then.i.i.i.i.i
  %16 = landingpad { ptr, i32 }
          catch ptr null
  %17 = extractvalue { ptr, i32 } %16, 0
  call void @__clang_call_terminate(ptr %17) #19
  unreachable

terminate.lpad.i.i:                               ; preds = %if.then2.i.i.i.i.i.i
  %18 = landingpad { ptr, i32 }
          catch ptr null
  %19 = extractvalue { ptr, i32 } %18, 0
  call void @__clang_call_terminate(ptr %19) #19
  unreachable

_ZN10ref_vectorI4expr11ast_managerED2Ev.exit:     ; preds = %_ZN7obj_refI4expr11ast_managerED2Ev.exit, %invoke.cont7.i.i, %if.then.i.i.i.i.i
  ret i1 %cmp.i

ehcleanup:                                        ; preds = %lpad3, %lpad
  %.pn = phi { ptr, i32 } [ %4, %lpad3 ], [ %3, %lpad ]
  call void @_ZN10ref_vectorI4expr11ast_managerED2Ev(ptr noundef nonnull align 8 dereferenceable(16) %eqs) #18
  resume { ptr, i32 } %.pn
}